; Function Attrs: mustprogress uwtable
define hidden void @_ZNK6google8protobuf8compiler4java36ImmutablePrimitiveFieldLiteGenerator12GetBoxedTypeB5cxx11Ev(ptr noalias sret(%"class.std::__cxx11::basic_string") align 8 %agg.result, ptr nocapture noundef nonnull readonly align 8 dereferenceable(72) %this) unnamed_addr #3 align 2 personality ptr @__gxx_personality_v0 {
entry:
  %agg.tmp.i = alloca %"struct.std::__cxx11::basic_string<char>::__sv_wrapper", align 8
  %ref.tmp3 = alloca %"class.std::allocator.31", align 1
  %descriptor_ = getelementptr inbounds i8, ptr %this, i64 8
  %0 = load ptr, ptr %descriptor_, align 8
  %call = tail call noundef i32 @_ZN6google8protobuf8compiler4java11GetJavaTypeEPKNS0_15FieldDescriptorE(ptr noundef %0)
  %call2 = tail call { i64, ptr } @_ZN6google8protobuf8compiler4java22BoxedPrimitiveTypeNameENS2_8JavaTypeE(i32 noundef %call)
  %1 = extractvalue { i64, ptr } %call2, 0
  %2 = extractvalue { i64, ptr } %call2, 1
  call void @_ZNSaIcEC1Ev(ptr noundef nonnull align 1 dereferenceable(1) %ref.tmp3) #21
  call void @llvm.lifetime.start.p0(i64 16, ptr nonnull %agg.tmp.i)
  %call.i = call { i64, ptr } @_ZNSt7__cxx1112basic_stringIcSt11char_traitsIcESaIcEE17_S_to_string_viewESt17basic_string_viewIcS2_E(i64 %1, ptr %2) #21
  %3 = extractvalue { i64, ptr } %call.i, 0
  %4 = extractvalue { i64, ptr } %call.i, 1
  call void @_ZNSt7__cxx1112basic_stringIcSt11char_traitsIcESaIcEE12__sv_wrapperC1ESt17basic_string_viewIcS2_E(ptr noundef nonnull align 8 dereferenceable(16) %agg.tmp.i, i64 %3, ptr %4) #21
  %5 = load i64, ptr %agg.tmp.i, align 8
  %6 = getelementptr inbounds i8, ptr %agg.tmp.i, i64 8
  %7 = load ptr, ptr %6, align 8
  invoke void @_ZNSt7__cxx1112basic_stringIcSt11char_traitsIcESaIcEEC2ENS4_12__sv_wrapperERKS3_(ptr noundef nonnull align 8 dereferenceable(32) %agg.result, i64 %5, ptr %7, ptr noundef nonnull align 1 dereferenceable(1) %ref.tmp3)
          to label %invoke.cont unwind label %lpad

invoke.cont:                                      ; preds = %entry
  call void @llvm.lifetime.end.p0(i64 16, ptr nonnull %agg.tmp.i)
  call void @_ZNSaIcED1Ev(ptr noundef nonnull align 1 dereferenceable(1) %ref.tmp3) #21
  ret void

lpad:                                             ; preds = %entry
  %8 = landingpad { ptr, i32 }
          cleanup
  call void @_ZNSaIcED1Ev(ptr noundef nonnull align 1 dereferenceable(1) %ref.tmp3) #21
  resume { ptr, i32 } %8
}